target datalayout = "e-m:e-p270:32:32-p271:32:32-p272:64:64-i64:64-i128:128-f80:128-n8:16:32:64-S128"
target triple = "x86_64-pc-linux-gnu"

%struct.expert_field = type { i32, i32 }
%struct._h248_package_t = type { i32, ptr, ptr, ptr, ptr, ptr, ptr, ptr, ptr, ptr, ptr }
%struct._h248_curr_info_t = type { ptr, ptr, ptr, ptr, ptr, ptr, ptr, ptr, ptr, ptr }
%struct._h248_pkg_param_t = type { i32, ptr, ptr, ptr }
%struct._asn1_ctx_t = type { i32, i32, i8, ptr, ptr, ptr, ptr, ptr, %struct.anon.2, %struct.anon.5, %struct.anon.6, ptr }
%struct.anon.2 = type { i32, i8, i8, i8, ptr, ptr, i32, i32, ptr, ptr, ptr, %union.anon }
%union.anon = type { %struct.anon.3 }
%struct.anon.3 = type { ptr }
%struct.anon.5 = type { ptr, ptr, ptr }
%struct.anon.6 = type { i32, i8, ptr, i32, i32, ptr, ptr, ptr, %union.anon.7 }
%union.anon.7 = type { %struct.anon.8 }
%struct.anon.8 = type { ptr }

@ei_h248_octet_string_expected = internal global %struct.expert_field zeroinitializer, align 4
@no_package = internal constant %struct._h248_package_t { i32 65535, ptr @hf_h248_no_pkg, ptr @ett_h248_no_pkg, ptr null, ptr null, ptr null, ptr null, ptr null, ptr null, ptr null, ptr null }, align 8
@curr_info = internal global %struct._h248_curr_info_t zeroinitializer, align 8
@packageandid = internal global i32 0, align 4
@.str.1319 = private unnamed_addr constant [79 x i8] c"H.248 BER Error: OctetString expected but Class:%d PC:%d Tag:%d was unexpected\00", align 1
@no_param = internal constant %struct._h248_pkg_param_t { i32 0, ptr @hf_h248_param, ptr @h248_param_uint_item, ptr null }, align 8

; Function Attrs: nounwind uwtable
define internal i32 @dissect_h248_PropertyID(i1 noundef zeroext %0, ptr noundef %1, i32 noundef %2, ptr noundef %3, ptr noundef %4, i32 noundef %5) #0 {
  %7 = alloca i32, align 4
  %8 = alloca i8, align 1
  %9 = alloca ptr, align 8
  %10 = alloca i32, align 4
  %11 = alloca ptr, align 8
  %12 = alloca ptr, align 8
  %13 = alloca i32, align 4
  %14 = alloca i8, align 1
  %15 = alloca i8, align 1
  %16 = alloca i8, align 1
  %17 = alloca i32, align 4
  %18 = alloca i32, align 4
  %19 = alloca i16, align 2
  %20 = alloca i32, align 4
  %21 = alloca ptr, align 8
  %22 = alloca ptr, align 8
  %23 = alloca ptr, align 8
  %24 = zext i1 %0 to i8
  store i8 %24, ptr %8, align 1
  store ptr %1, ptr %9, align 8
  store i32 %2, ptr %10, align 4
  store ptr %3, ptr %11, align 8
  store ptr %4, ptr %12, align 8
  store i32 %5, ptr %13, align 4
  store ptr null, ptr %23, align 8
  %25 = load ptr, ptr %11, align 8
  %26 = getelementptr inbounds %struct._asn1_ctx_t, ptr %25, i32 0, i32 3
  %27 = load ptr, ptr %26, align 8
  %28 = load ptr, ptr %12, align 8
  %29 = load ptr, ptr %9, align 8
  %30 = load i32, ptr %10, align 4
  %31 = call i32 @dissect_ber_identifier(ptr noundef %27, ptr noundef %28, ptr noundef %29, i32 noundef %30, ptr noundef %14, ptr noundef %15, ptr noundef %17)
  store i32 %31, ptr %10, align 4
  %32 = load ptr, ptr %11, align 8
  %33 = getelementptr inbounds %struct._asn1_ctx_t, ptr %32, i32 0, i32 3
  %34 = load ptr, ptr %33, align 8
  %35 = load ptr, ptr %12, align 8
  %36 = load ptr, ptr %9, align 8
  %37 = load i32, ptr %10, align 4
  %38 = call i32 @dissect_ber_length(ptr noundef %34, ptr noundef %35, ptr noundef %36, i32 noundef %37, ptr noundef %18, ptr noundef %16)
  store i32 %38, ptr %10, align 4
  %39 = load i32, ptr %10, align 4
  %40 = load i32, ptr %18, align 4
  %41 = add i32 %39, %40
  store i32 %41, ptr %20, align 4
  %42 = load i8, ptr %14, align 1
  %43 = sext i8 %42 to i32
  %44 = icmp ne i32 %43, 0
  br i1 %44, label %48, label %45

45:                                               ; preds = %6
  %46 = load i32, ptr %17, align 4
  %47 = icmp ne i32 %46, 4
  br i1 %47, label %48, label %64

48:                                               ; preds = %45, %6
  %49 = load ptr, ptr %12, align 8
  %50 = load ptr, ptr %11, align 8
  %51 = getelementptr inbounds %struct._asn1_ctx_t, ptr %50, i32 0, i32 3
  %52 = load ptr, ptr %51, align 8
  %53 = load ptr, ptr %9, align 8
  %54 = load i32, ptr %10, align 4
  %55 = sub i32 %54, 2
  %56 = load i8, ptr %14, align 1
  %57 = sext i8 %56 to i32
  %58 = load i8, ptr %15, align 1
  %59 = trunc i8 %58 to i1
  %60 = zext i1 %59 to i32
  %61 = load i32, ptr %17, align 4
  %62 = call ptr (ptr, ptr, ptr, ptr, i32, i32, ptr, ...) @proto_tree_add_expert_format(ptr noundef %49, ptr noundef %52, ptr noundef @ei_h248_octet_string_expected, ptr noundef %53, i32 noundef %55, i32 noundef 2, ptr noundef @.str.1319, i32 noundef %57, i32 noundef %60, i32 noundef %61)
  %63 = load i32, ptr %20, align 4
  store i32 %63, ptr %7, align 4
  br label %144

64:                                               ; preds = %45
  %65 = load ptr, ptr %9, align 8
  %66 = load i32, ptr %10, align 4
  %67 = load i32, ptr %18, align 4
  %68 = call ptr @tvb_new_subset_length(ptr noundef %65, i32 noundef %66, i32 noundef %67)
  store ptr %68, ptr %23, align 8
  %69 = load i32, ptr @packageandid, align 4
  %70 = and i32 %69, 65535
  %71 = trunc i32 %70 to i16
  store i16 %71, ptr %19, align 2
  %72 = getelementptr inbounds %struct._h248_curr_info_t, ptr @curr_info, i32 0, i32 5
  %73 = load ptr, ptr %72, align 8
  %74 = icmp ne ptr %73, null
  br i1 %74, label %75, label %78

75:                                               ; preds = %64
  %76 = getelementptr inbounds %struct._h248_curr_info_t, ptr @curr_info, i32 0, i32 5
  %77 = load ptr, ptr %76, align 8
  br label %79

78:                                               ; preds = %64
  br label %79

79:                                               ; preds = %78, %75
  %80 = phi ptr [ %77, %75 ], [ @no_package, %78 ]
  store ptr %80, ptr %21, align 8
  %81 = load ptr, ptr %21, align 8
  %82 = getelementptr inbounds %struct._h248_package_t, ptr %81, i32 0, i32 7
  %83 = load ptr, ptr %82, align 8
  %84 = icmp ne ptr %83, null
  br i1 %84, label %85, label %112

85:                                               ; preds = %79
  %86 = load ptr, ptr %21, align 8
  %87 = getelementptr inbounds %struct._h248_package_t, ptr %86, i32 0, i32 7
  %88 = load ptr, ptr %87, align 8
  store ptr %88, ptr %22, align 8
  br label %89

89:                                               ; preds = %108, %85
  %90 = load ptr, ptr %22, align 8
  %91 = icmp ne ptr %90, null
  br i1 %91, label %92, label %97

92:                                               ; preds = %89
  %93 = load ptr, ptr %22, align 8
  %94 = getelementptr inbounds %struct._h248_pkg_param_t, ptr %93, i32 0, i32 1
  %95 = load ptr, ptr %94, align 8
  %96 = icmp ne ptr %95, null
  br label %97

97:                                               ; preds = %92, %89
  %98 = phi i1 [ false, %89 ], [ %96, %92 ]
  br i1 %98, label %99, label %111

99:                                               ; preds = %97
  %100 = load i16, ptr %19, align 2
  %101 = zext i16 %100 to i32
  %102 = load ptr, ptr %22, align 8
  %103 = getelementptr inbounds %struct._h248_pkg_param_t, ptr %102, i32 0, i32 0
  %104 = load i32, ptr %103, align 8
  %105 = icmp eq i32 %101, %104
  br i1 %105, label %106, label %107

106:                                              ; preds = %99
  br label %111

107:                                              ; preds = %99
  br label %108

108:                                              ; preds = %107
  %109 = load ptr, ptr %22, align 8
  %110 = getelementptr %struct._h248_pkg_param_t, ptr %109, i32 1
  store ptr %110, ptr %22, align 8
  br label %89, !llvm.loop !29

111:                                              ; preds = %106, %97
  br label %113

112:                                              ; preds = %79
  store ptr @no_param, ptr %22, align 8
  br label %113

113:                                              ; preds = %112, %111
  %114 = load ptr, ptr %22, align 8
  %115 = icmp ne ptr %114, null
  br i1 %115, label %116, label %142

116:                                              ; preds = %113
  %117 = load ptr, ptr %22, align 8
  %118 = getelementptr inbounds %struct._h248_pkg_param_t, ptr %117, i32 0, i32 1
  %119 = load ptr, ptr %118, align 8
  %120 = icmp ne ptr %119, null
  br i1 %120, label %121, label %142

121:                                              ; preds = %116
  %122 = load ptr, ptr %22, align 8
  %123 = getelementptr inbounds %struct._h248_pkg_param_t, ptr %122, i32 0, i32 2
  %124 = load ptr, ptr %123, align 8
  %125 = icmp ne ptr %124, null
  br i1 %125, label %126, label %142

126:                                              ; preds = %121
  %127 = load ptr, ptr %22, align 8
  %128 = getelementptr inbounds %struct._h248_pkg_param_t, ptr %127, i32 0, i32 2
  %129 = load ptr, ptr %128, align 8
  %130 = load ptr, ptr %12, align 8
  %131 = load ptr, ptr %23, align 8
  %132 = load ptr, ptr %11, align 8
  %133 = getelementptr inbounds %struct._asn1_ctx_t, ptr %132, i32 0, i32 3
  %134 = load ptr, ptr %133, align 8
  %135 = load ptr, ptr %22, align 8
  %136 = getelementptr inbounds %struct._h248_pkg_param_t, ptr %135, i32 0, i32 1
  %137 = load ptr, ptr %136, align 8
  %138 = load i32, ptr %137, align 4
  %139 = load ptr, ptr %22, align 8
  %140 = getelementptr inbounds %struct._h248_pkg_param_t, ptr %139, i32 0, i32 3
  %141 = load ptr, ptr %140, align 8
  call void %129(ptr noundef %130, ptr noundef %131, ptr noundef %134, i32 noundef %138, ptr noundef @curr_info, ptr noundef %141)
  br label %142

142:                                              ; preds = %126, %121, %116, %113
  %143 = load i32, ptr %20, align 4
  store i32 %143, ptr %7, align 4
  br label %144

144:                                              ; preds = %142, %48
  %145 = load i32, ptr %7, align 4
  ret i32 %145
}