; Function Attrs: nounwind uwtable
define internal i32 @dissect_h248_PropertyID(i1 zeroext %0, ptr noundef %1, i32 noundef %2, ptr noundef readonly captures(none) %3, ptr noundef %4, i32 %5) #0 {
  %7 = alloca i8, align 1
  %8 = alloca i8, align 1
  %9 = alloca i8, align 1
  %10 = alloca i32, align 4
  %11 = alloca i32, align 4
  %12 = getelementptr inbounds nuw i8, ptr %3, i64 16
  %13 = load ptr, ptr %12, align 8
  %14 = call i32 @dissect_ber_identifier(ptr noundef %13, ptr noundef %4, ptr noundef %1, i32 noundef %2, ptr noundef nonnull %7, ptr noundef nonnull %8, ptr noundef nonnull %10) #7
  %15 = load ptr, ptr %12, align 8
  %16 = call i32 @dissect_ber_length(ptr noundef %15, ptr noundef %4, ptr noundef %1, i32 noundef %14, ptr noundef nonnull %11, ptr noundef nonnull %9) #7
  %17 = load i32, ptr %11, align 4
  %18 = load i8, ptr %7, align 1
  %19 = icmp ne i8 %18, 0
  %20 = load i32, ptr %10, align 4
  %21 = icmp ne i32 %20, 4
  %or.cond = select i1 %19, i1 true, i1 %21
  br i1 %or.cond, label %22, label %30

22:                                               ; preds = %6
  %23 = sext i8 %18 to i32
  %24 = load ptr, ptr %12, align 8
  %25 = add i32 %16, -2
  %26 = load i8, ptr %8, align 1
  %27 = and i8 %26, 1
  %28 = zext nneg i8 %27 to i32
  %29 = call ptr (ptr, ptr, ptr, ptr, i32, i32, ptr, ...) @proto_tree_add_expert_format(ptr noundef %4, ptr noundef %24, ptr noundef nonnull @ei_h248_octet_string_expected, ptr noundef %1, i32 noundef %25, i32 noundef 2, ptr noundef nonnull @.str.1319, i32 noundef %23, i32 noundef %28, i32 noundef %20) #7
  br label %.critedge

30:                                               ; preds = %6
  %31 = call ptr @tvb_new_subset_length(ptr noundef %1, i32 noundef %16, i32 noundef %17) #7
  %32 = load ptr, ptr getelementptr inbounds nuw (i8, ptr @curr_info, i64 40), align 8
  %.not = icmp eq ptr %32, null
  %33 = select i1 %.not, ptr @no_package, ptr %32
  %34 = getelementptr inbounds nuw i8, ptr %33, i64 56
  %35 = load ptr, ptr %34, align 8
  %.not38 = icmp eq ptr %35, null
  br i1 %.not38, label %.loopexit, label %.preheader

.preheader:                                       ; preds = %30
  %36 = load i32, ptr @packageandid, align 4
  %37 = and i32 %36, 65535
  br label %38

38:                                               ; preds = %.preheader, %44
  %.048 = phi ptr [ %35, %.preheader ], [ %45, %44 ]
  %39 = getelementptr inbounds nuw i8, ptr %.048, i64 8
  %40 = load ptr, ptr %39, align 8
  %.not40 = icmp eq ptr %40, null
  br i1 %.not40, label %.critedge, label %41

41:                                               ; preds = %38
  %42 = load i32, ptr %.048, align 8
  %43 = icmp eq i32 %37, %42
  br i1 %43, label %.loopexit, label %44

44:                                               ; preds = %41
  %45 = getelementptr i8, ptr %.048, i64 32
  %.not39 = icmp eq ptr %45, null
  br i1 %.not39, label %.critedge, label %38, !llvm.loop !29

.loopexit:                                        ; preds = %41, %30
  %.ph = phi ptr [ @hf_h248_param, %30 ], [ %40, %41 ]
  %.1.ph.ph = phi ptr [ @no_param, %30 ], [ %.048, %41 ]
  %46 = getelementptr inbounds nuw i8, ptr %.1.ph.ph, i64 16
  %47 = load ptr, ptr %46, align 8
  %.not43 = icmp eq ptr %47, null
  br i1 %.not43, label %.critedge, label %48

48:                                               ; preds = %.loopexit
  %49 = load ptr, ptr %12, align 8
  %50 = load i32, ptr %.ph, align 4
  %51 = getelementptr inbounds nuw i8, ptr %.1.ph.ph, i64 24
  %52 = load ptr, ptr %51, align 8
  call void %47(ptr noundef %4, ptr noundef %31, ptr noundef %49, i32 noundef %50, ptr noundef nonnull @curr_info, ptr noundef %52) #7
  br label %.critedge

.critedge:                                        ; preds = %44, %38, %.loopexit, %48, %22
  %53 = add i32 %17, %16
  ret i32 %53
}